target datalayout = "e-m:e-p270:32:32-p271:32:32-p272:64:64-i64:64-i128:128-f80:128-n8:16:32:64-S128"
target triple = "x86_64-pc-linux-gnu"

%"class.ncnn::Mat" = type { ptr, ptr, i64, i32, ptr, i32, i32, i32, i32, i32, i64 }

@stderr = external global ptr, align 8
@.str = private unnamed_addr constant [24 x i8] c"unknown convert type %d\00", align 1
@.str.1 = private unnamed_addr constant [2 x i8] c"\0A\00", align 1

; Function Attrs: alwaysinline mustprogress nounwind uwtable
define linkonce_odr hidden void @_ZN4ncnn3MatC2Ev(ptr noundef nonnull align 8 dereferenceable(72) %0) unnamed_addr #5 comdat align 2 {
  %2 = alloca ptr, align 8
  store ptr %0, ptr %2, align 8, !tbaa !25
  %3 = load ptr, ptr %2, align 8
  %4 = getelementptr inbounds nuw %"class.ncnn::Mat", ptr %3, i32 0, i32 0
  store ptr null, ptr %4, align 8, !tbaa !27
  %5 = getelementptr inbounds nuw %"class.ncnn::Mat", ptr %3, i32 0, i32 1
  store ptr null, ptr %5, align 8, !tbaa !30
  %6 = getelementptr inbounds nuw %"class.ncnn::Mat", ptr %3, i32 0, i32 2
  store i64 0, ptr %6, align 8, !tbaa !31
  %7 = getelementptr inbounds nuw %"class.ncnn::Mat", ptr %3, i32 0, i32 3
  store i32 0, ptr %7, align 8, !tbaa !32
  %8 = getelementptr inbounds nuw %"class.ncnn::Mat", ptr %3, i32 0, i32 4
  store ptr null, ptr %8, align 8, !tbaa !33
  %9 = getelementptr inbounds nuw %"class.ncnn::Mat", ptr %3, i32 0, i32 5
  store i32 0, ptr %9, align 8, !tbaa !34
  %10 = getelementptr inbounds nuw %"class.ncnn::Mat", ptr %3, i32 0, i32 6
  store i32 0, ptr %10, align 4, !tbaa !35
  %11 = getelementptr inbounds nuw %"class.ncnn::Mat", ptr %3, i32 0, i32 7
  store i32 0, ptr %11, align 8, !tbaa !36
  %12 = getelementptr inbounds nuw %"class.ncnn::Mat", ptr %3, i32 0, i32 8
  store i32 0, ptr %12, align 4, !tbaa !37
  %13 = getelementptr inbounds nuw %"class.ncnn::Mat", ptr %3, i32 0, i32 9
  store i32 0, ptr %13, align 8, !tbaa !38
  %14 = getelementptr inbounds nuw %"class.ncnn::Mat", ptr %3, i32 0, i32 10
  store i64 0, ptr %14, align 8, !tbaa !39
  ret void
}

; Function Attrs: mustprogress uwtable
define hidden void @_ZN4ncnn3Mat18from_pixels_resizeEPKhiiiiiPNS_9AllocatorE(ptr dead_on_unwind noalias writable sret(%"class.ncnn::Mat") align 8 %0, ptr noundef %1, i32 noundef %2, i32 noundef %3, i32 noundef %4, i32 noundef %5, i32 noundef %6, ptr noundef %7) #0 align 2 {
  %9 = alloca ptr, align 8
  %10 = alloca ptr, align 8
  %11 = alloca i32, align 4
  %12 = alloca i32, align 4
  %13 = alloca i32, align 4
  %14 = alloca i32, align 4
  %15 = alloca i32, align 4
  %16 = alloca ptr, align 8
  %17 = alloca i32, align 4
  %18 = alloca i32, align 4
  store ptr %0, ptr %9, align 8
  store ptr %1, ptr %10, align 8, !tbaa !4
  store i32 %2, ptr %11, align 4, !tbaa !9
  store i32 %3, ptr %12, align 4, !tbaa !9
  store i32 %4, ptr %13, align 4, !tbaa !9
  store i32 %5, ptr %14, align 4, !tbaa !9
  store i32 %6, ptr %15, align 4, !tbaa !9
  store ptr %7, ptr %16, align 8, !tbaa !21
  call void @llvm.lifetime.start.p0(i64 4, ptr %17) #9
  %19 = load i32, ptr %11, align 4, !tbaa !9
  %20 = and i32 %19, 65535
  store i32 %20, ptr %17, align 4, !tbaa !9
  %21 = load i32, ptr %17, align 4, !tbaa !9
  %22 = icmp eq i32 %21, 1
  br i1 %22, label %26, label %23

23:                                               ; preds = %8
  %24 = load i32, ptr %17, align 4, !tbaa !9
  %25 = icmp eq i32 %24, 2
  br i1 %25, label %26, label %36

26:                                               ; preds = %23, %8
  %27 = load ptr, ptr %10, align 8, !tbaa !4
  %28 = load i32, ptr %11, align 4, !tbaa !9
  %29 = load i32, ptr %12, align 4, !tbaa !9
  %30 = load i32, ptr %13, align 4, !tbaa !9
  %31 = load i32, ptr %12, align 4, !tbaa !9
  %32 = mul nsw i32 %31, 3
  %33 = load i32, ptr %14, align 4, !tbaa !9
  %34 = load i32, ptr %15, align 4, !tbaa !9
  %35 = load ptr, ptr %16, align 8, !tbaa !21
  call void @_ZN4ncnn3Mat18from_pixels_resizeEPKhiiiiiiPNS_9AllocatorE(ptr dead_on_unwind writable sret(%"class.ncnn::Mat") align 8 %0, ptr noundef %27, i32 noundef %28, i32 noundef %29, i32 noundef %30, i32 noundef %32, i32 noundef %33, i32 noundef %34, ptr noundef %35)
  store i32 1, ptr %18, align 4
  br label %76

36:                                               ; preds = %23
  %37 = load i32, ptr %17, align 4, !tbaa !9
  %38 = icmp eq i32 %37, 3
  br i1 %38, label %39, label %49

39:                                               ; preds = %36
  %40 = load ptr, ptr %10, align 8, !tbaa !4
  %41 = load i32, ptr %11, align 4, !tbaa !9
  %42 = load i32, ptr %12, align 4, !tbaa !9
  %43 = load i32, ptr %13, align 4, !tbaa !9
  %44 = load i32, ptr %12, align 4, !tbaa !9
  %45 = mul nsw i32 %44, 1
  %46 = load i32, ptr %14, align 4, !tbaa !9
  %47 = load i32, ptr %15, align 4, !tbaa !9
  %48 = load ptr, ptr %16, align 8, !tbaa !21
  call void @_ZN4ncnn3Mat18from_pixels_resizeEPKhiiiiiiPNS_9AllocatorE(ptr dead_on_unwind writable sret(%"class.ncnn::Mat") align 8 %0, ptr noundef %40, i32 noundef %41, i32 noundef %42, i32 noundef %43, i32 noundef %45, i32 noundef %46, i32 noundef %47, ptr noundef %48)
  store i32 1, ptr %18, align 4
  br label %76

49:                                               ; preds = %36
  %50 = load i32, ptr %17, align 4, !tbaa !9
  %51 = icmp eq i32 %50, 4
  br i1 %51, label %55, label %52

52:                                               ; preds = %49
  %53 = load i32, ptr %17, align 4, !tbaa !9
  %54 = icmp eq i32 %53, 5
  br i1 %54, label %55, label %65

55:                                               ; preds = %52, %49
  %56 = load ptr, ptr %10, align 8, !tbaa !4
  %57 = load i32, ptr %11, align 4, !tbaa !9
  %58 = load i32, ptr %12, align 4, !tbaa !9
  %59 = load i32, ptr %13, align 4, !tbaa !9
  %60 = load i32, ptr %12, align 4, !tbaa !9
  %61 = mul nsw i32 %60, 4
  %62 = load i32, ptr %14, align 4, !tbaa !9
  %63 = load i32, ptr %15, align 4, !tbaa !9
  %64 = load ptr, ptr %16, align 8, !tbaa !21
  call void @_ZN4ncnn3Mat18from_pixels_resizeEPKhiiiiiiPNS_9AllocatorE(ptr dead_on_unwind writable sret(%"class.ncnn::Mat") align 8 %0, ptr noundef %56, i32 noundef %57, i32 noundef %58, i32 noundef %59, i32 noundef %61, i32 noundef %62, i32 noundef %63, ptr noundef %64)
  store i32 1, ptr %18, align 4
  br label %76

65:                                               ; preds = %52
  br label %66

66:                                               ; preds = %65
  br label %67

67:                                               ; preds = %66
  br label %68

68:                                               ; preds = %67
  %69 = load ptr, ptr @stderr, align 8, !tbaa !23
  %70 = load i32, ptr %11, align 4, !tbaa !9
  %71 = call i32 (ptr, ptr, ...) @fprintf(ptr noundef %69, ptr noundef @.str, i32 noundef %70) #9
  %72 = load ptr, ptr @stderr, align 8, !tbaa !23
  %73 = call i32 (ptr, ptr, ...) @fprintf(ptr noundef %72, ptr noundef @.str.1) #9
  br label %74

74:                                               ; preds = %68
  br label %75

75:                                               ; preds = %74
  call void @_ZN4ncnn3MatC2Ev(ptr noundef nonnull align 8 dereferenceable(72) %0)
  store i32 1, ptr %18, align 4
  br label %76

76:                                               ; preds = %75, %55, %39, %26
  call void @llvm.lifetime.end.p0(i64 4, ptr %17) #9
  ret void
}