; Function Attrs: mustprogress uwtable
define hidden void @_ZN4ncnn3Mat18from_pixels_resizeEPKhiiiiiPNS_9AllocatorE(ptr dead_on_unwind noalias writable sret(%"class.ncnn::Mat") align 8 %0, ptr noundef %1, i32 noundef %2, i32 noundef %3, i32 noundef %4, i32 noundef %5, i32 noundef %6, ptr noundef %7) local_unnamed_addr #2 align 2 {
  %9 = and i32 %2, 65535
  %10 = add nsw i32 %9, -1
  %or.cond = icmp ult i32 %10, 2
  br i1 %or.cond, label %11, label %13

11:                                               ; preds = %8
  %12 = mul nsw i32 %3, 3
  tail call void @_ZN4ncnn3Mat18from_pixels_resizeEPKhiiiiiiPNS_9AllocatorE(ptr dead_on_unwind writable sret(%"class.ncnn::Mat") align 8 %0, ptr noundef %1, i32 noundef %2, i32 noundef %3, i32 noundef %4, i32 noundef %12, i32 noundef %5, i32 noundef %6, ptr noundef %7)
  br label %26

13:                                               ; preds = %8
  %14 = icmp eq i32 %9, 3
  br i1 %14, label %15, label %16

15:                                               ; preds = %13
  tail call void @_ZN4ncnn3Mat18from_pixels_resizeEPKhiiiiiiPNS_9AllocatorE(ptr dead_on_unwind writable sret(%"class.ncnn::Mat") align 8 %0, ptr noundef %1, i32 noundef %2, i32 noundef %3, i32 noundef %4, i32 noundef %3, i32 noundef %5, i32 noundef %6, ptr noundef %7)
  br label %26

16:                                               ; preds = %13
  %17 = and i32 %2, 65534
  %or.cond3 = icmp eq i32 %17, 4
  br i1 %or.cond3, label %18, label %20

18:                                               ; preds = %16
  %19 = shl nsw i32 %3, 2
  tail call void @_ZN4ncnn3Mat18from_pixels_resizeEPKhiiiiiiPNS_9AllocatorE(ptr dead_on_unwind writable sret(%"class.ncnn::Mat") align 8 %0, ptr noundef %1, i32 noundef %2, i32 noundef %3, i32 noundef %4, i32 noundef %19, i32 noundef %5, i32 noundef %6, ptr noundef %7)
  br label %26

20:                                               ; preds = %16
  %21 = load ptr, ptr @stderr, align 8, !tbaa !14
  %22 = tail call i32 (ptr, ptr, ...) @fprintf(ptr noundef %21, ptr noundef nonnull @.str, i32 noundef %2) #13
  %23 = load ptr, ptr @stderr, align 8, !tbaa !14
  %fputc = tail call i32 @fputc(i32 10, ptr %23)
  %24 = getelementptr inbounds nuw i8, ptr %0, i64 32
  %25 = getelementptr inbounds nuw i8, ptr %0, i64 64
  store i64 0, ptr %25, align 8, !tbaa !17
  tail call void @llvm.memset.p0.i64(ptr noundef nonnull align 8 dereferenceable(28) %0, i8 0, i64 28, i1 false)
  tail call void @llvm.memset.p0.i64(ptr noundef nonnull align 8 dereferenceable(28) %24, i8 0, i64 28, i1 false)
  br label %26

26:                                               ; preds = %20, %18, %15, %11
  ret void
}